target datalayout = "e-m:e-p270:32:32-p271:32:32-p272:64:64-i64:64-i128:128-f80:128-n8:16:32:64-S128"
target triple = "x86_64-pc-linux-gnu"

%struct.preference = type { ptr, ptr, ptr, i32, i32, i32, %union.anon, %union.anon.0, %union.anon.1, %union.anon.2, %struct.pref_custom_cbs, ptr, ptr }
%union.anon = type { ptr }
%union.anon.0 = type { ptr }
%union.anon.1 = type { ptr }
%union.anon.2 = type { %struct.anon }
%struct.anon = type { ptr, i8 }
%struct.pref_custom_cbs = type { ptr, ptr, ptr, ptr, ptr, ptr, ptr }

@.str = private unnamed_addr constant [5 x i8] c"Epan\00", align 1
@.str.1 = private unnamed_addr constant [13 x i8] c"epan/prefs.c\00", align 1
@.str.8 = private unnamed_addr constant [31 x i8] c"assertion \22not reached\22 failed\00", align 1
@__func__.prefs_set_enum_value = private unnamed_addr constant [21 x i8] c"prefs_set_enum_value\00", align 1

; Function Attrs: nounwind null_pointer_is_valid sspstrong uwtable
define i32 @prefs_get_effect_flags(ptr noundef %0) #0 {
  %2 = alloca i32, align 4
  %3 = alloca ptr, align 8
  store ptr %0, ptr %3, align 8
  %4 = load ptr, ptr %3, align 8
  %5 = icmp eq ptr %4, null
  br i1 %5, label %6, label %7

6:                                                ; preds = %1
  store i32 0, ptr %2, align 4
  br label %11

7:                                                ; preds = %1
  %8 = load ptr, ptr %3, align 8
  %9 = getelementptr inbounds nuw %struct.preference, ptr %8, i32 0, i32 5
  %10 = load i32, ptr %9, align 8
  store i32 %10, ptr %2, align 4
  br label %11

11:                                               ; preds = %7, %6
  %12 = load i32, ptr %2, align 4
  ret i32 %12
}

; Function Attrs: null_pointer_is_valid sspstrong uwtable
define i32 @prefs_set_enum_value(ptr noundef %0, i32 noundef %1, i32 noundef %2) #1 {
  %4 = alloca ptr, align 8
  %5 = alloca i32, align 4
  %6 = alloca i32, align 4
  %7 = alloca i32, align 4
  store ptr %0, ptr %4, align 8
  store i32 %1, ptr %5, align 4
  store i32 %2, ptr %6, align 4
  call void @llvm.lifetime.start.p0(i64 4, ptr %7) #17
  store i32 0, ptr %7, align 4
  %8 = load i32, ptr %6, align 4
  switch i32 %8, label %50 [
    i32 0, label %9
    i32 1, label %22
    i32 2, label %35
  ]

9:                                                ; preds = %3
  %10 = load ptr, ptr %4, align 8
  %11 = getelementptr inbounds nuw %struct.preference, ptr %10, i32 0, i32 8
  %12 = load i32, ptr %11, align 8
  %13 = load i32, ptr %5, align 4
  %14 = icmp ne i32 %12, %13
  br i1 %14, label %15, label %21

15:                                               ; preds = %9
  %16 = load i32, ptr %5, align 4
  %17 = load ptr, ptr %4, align 8
  %18 = getelementptr inbounds nuw %struct.preference, ptr %17, i32 0, i32 8
  store i32 %16, ptr %18, align 8
  %19 = load ptr, ptr %4, align 8
  %20 = call i32 @prefs_get_effect_flags(ptr noundef %19)
  store i32 %20, ptr %7, align 4
  br label %21

21:                                               ; preds = %15, %9
  br label %51

22:                                               ; preds = %3
  %23 = load ptr, ptr %4, align 8
  %24 = getelementptr inbounds nuw %struct.preference, ptr %23, i32 0, i32 7
  %25 = load i32, ptr %24, align 8
  %26 = load i32, ptr %5, align 4
  %27 = icmp ne i32 %25, %26
  br i1 %27, label %28, label %34

28:                                               ; preds = %22
  %29 = load i32, ptr %5, align 4
  %30 = load ptr, ptr %4, align 8
  %31 = getelementptr inbounds nuw %struct.preference, ptr %30, i32 0, i32 7
  store i32 %29, ptr %31, align 8
  %32 = load ptr, ptr %4, align 8
  %33 = call i32 @prefs_get_effect_flags(ptr noundef %32)
  store i32 %33, ptr %7, align 4
  br label %34

34:                                               ; preds = %28, %22
  br label %51

35:                                               ; preds = %3
  %36 = load ptr, ptr %4, align 8
  %37 = getelementptr inbounds nuw %struct.preference, ptr %36, i32 0, i32 6
  %38 = load ptr, ptr %37, align 8
  %39 = load i32, ptr %38, align 4
  %40 = load i32, ptr %5, align 4
  %41 = icmp ne i32 %39, %40
  br i1 %41, label %42, label %49

42:                                               ; preds = %35
  %43 = load i32, ptr %5, align 4
  %44 = load ptr, ptr %4, align 8
  %45 = getelementptr inbounds nuw %struct.preference, ptr %44, i32 0, i32 6
  %46 = load ptr, ptr %45, align 8
  store i32 %43, ptr %46, align 4
  %47 = load ptr, ptr %4, align 8
  %48 = call i32 @prefs_get_effect_flags(ptr noundef %47)
  store i32 %48, ptr %7, align 4
  br label %49

49:                                               ; preds = %42, %35
  br label %51

50:                                               ; preds = %3
  call void (ptr, i32, ptr, i64, ptr, ptr, ...) @ws_log_fatal_full(ptr noundef @.str, i32 noundef 7, ptr noundef @.str.1, i64 noundef 1379, ptr noundef @__func__.prefs_set_enum_value, ptr noundef @.str.8) #18
  unreachable

51:                                               ; preds = %49, %34, %21
  %52 = load i32, ptr %7, align 4
  call void @llvm.lifetime.end.p0(i64 4, ptr %7) #17
  ret i32 %52
}