; Function Attrs: null_pointer_is_valid sspstrong uwtable
define i32 @prefs_set_enum_value(ptr noundef captures(address_is_null) %0, i32 noundef %1, i32 noundef %2) local_unnamed_addr #1 {
  switch i32 %2, label %20 [
    i32 0, label %4
    i32 1, label %9
    i32 2, label %14
  ]

4:                                                ; preds = %3
  %5 = getelementptr inbounds nuw i8, ptr %0, i64 56
  %6 = load i32, ptr %5, align 8
  %.not18 = icmp eq i32 %6, %1
  br i1 %.not18, label %prefs_get_effect_flags.exit, label %7

7:                                                ; preds = %4
  store i32 %1, ptr %5, align 8
  %8 = icmp eq ptr %0, null
  br i1 %8, label %prefs_get_effect_flags.exit, label %prefs_get_effect_flags.exit.sink.split

9:                                                ; preds = %3
  %10 = getelementptr inbounds nuw i8, ptr %0, i64 48
  %11 = load i32, ptr %10, align 8
  %.not17 = icmp eq i32 %11, %1
  br i1 %.not17, label %prefs_get_effect_flags.exit, label %12

12:                                               ; preds = %9
  store i32 %1, ptr %10, align 8
  %13 = icmp eq ptr %0, null
  br i1 %13, label %prefs_get_effect_flags.exit, label %prefs_get_effect_flags.exit.sink.split

14:                                               ; preds = %3
  %15 = getelementptr inbounds nuw i8, ptr %0, i64 40
  %16 = load ptr, ptr %15, align 8
  %17 = load i32, ptr %16, align 4
  %.not = icmp eq i32 %17, %1
  br i1 %.not, label %prefs_get_effect_flags.exit, label %18

18:                                               ; preds = %14
  store i32 %1, ptr %16, align 4
  %19 = icmp eq ptr %0, null
  br i1 %19, label %prefs_get_effect_flags.exit, label %prefs_get_effect_flags.exit.sink.split

20:                                               ; preds = %3
  tail call void (ptr, i32, ptr, i64, ptr, ptr, ...) @ws_log_fatal_full(ptr noundef nonnull @.str, i32 noundef 7, ptr noundef nonnull @.str.1, i64 noundef 1379, ptr noundef nonnull @__func__.prefs_set_enum_value, ptr noundef nonnull @.str.8) #26
  unreachable

prefs_get_effect_flags.exit.sink.split:           ; preds = %18, %12, %7
  %21 = getelementptr inbounds nuw i8, ptr %0, i64 32
  %22 = load i32, ptr %21, align 8
  br label %prefs_get_effect_flags.exit

prefs_get_effect_flags.exit:                      ; preds = %prefs_get_effect_flags.exit.sink.split, %18, %12, %7, %14, %9, %4
  %.0 = phi i32 [ 0, %14 ], [ 0, %9 ], [ 0, %4 ], [ 0, %7 ], [ 0, %12 ], [ 0, %18 ], [ %22, %prefs_get_effect_flags.exit.sink.split ]
  ret i32 %.0
}